; Function Attrs: mustprogress uwtable
define hidden noundef zeroext i1 @_ZN4cvc58internal6theory2ff8isFfLeafERKNS0_12NodeTemplateILb1EEE(ptr noundef nonnull align 8 dereferenceable(8) %0) local_unnamed_addr #3 personality ptr @__gxx_personality_v0 {
  %2 = alloca %"class.cvc5::internal::NodeTemplate.67", align 8
  %3 = alloca %"class.cvc5::internal::TypeNode", align 8
  call void @llvm.lifetime.start.p0(i64 8, ptr nonnull %3) #19
  call void @_ZNK4cvc58internal12NodeTemplateILb1EE7getTypeEb(ptr dead_on_unwind nonnull writable sret(%"class.cvc5::internal::TypeNode") align 8 %3, ptr noundef nonnull align 8 dereferenceable(8) %0, i1 noundef zeroext false)
  %4 = load ptr, ptr %3, align 8, !tbaa !16
  %5 = getelementptr inbounds nuw i8, ptr %4, i64 8
  %6 = load i64, ptr %5, align 8
  %7 = and i64 %6, 1023
  %8 = icmp eq i64 %7, 151
  br i1 %8, label %9, label %30

9:                                                ; preds = %1
  %10 = load ptr, ptr %0, align 8, !tbaa !14
  call void @llvm.lifetime.start.p0(i64 8, ptr nonnull %2)
  %11 = getelementptr inbounds nuw i8, ptr %10, i64 8
  %12 = load i64, ptr %11, align 8
  %13 = trunc i64 %12 to i32
  %14 = and i32 %13, 1023
  %15 = icmp eq i32 %14, 1023
  %16 = select i1 %15, i32 -1, i32 %14
  %17 = invoke noundef i32 @_ZN4cvc58internal4kind10metaKindOfENS1_6Kind_tE(i32 noundef %16)
          to label %.noexc unwind label %45

.noexc:                                           ; preds = %9
  %18 = icmp eq i32 %17, 2
  %19 = load i64, ptr %11, align 8
  %20 = lshr i64 %19, 32
  %21 = and i64 %20, 67108863
  %22 = sext i1 %18 to i64
  %23 = add nsw i64 %21, %22
  %24 = and i64 %23, 4294967295
  %.not.i = icmp eq i64 %24, 0
  br i1 %.not.i, label %28, label %25

25:                                               ; preds = %.noexc
  store ptr %10, ptr %2, align 8, !tbaa !18
  %26 = invoke noundef i32 @_ZN4cvc58internal6theory6Theory8theoryOfENS0_12NodeTemplateILb0EEENS0_7options12TheoryOfModeENS1_8TheoryIdE(ptr noundef nonnull %2, i32 noundef 0, i32 noundef 2)
          to label %.noexc9 unwind label %45

.noexc9:                                          ; preds = %25
  %27 = icmp ne i32 %26, 5
  br label %28

28:                                               ; preds = %.noexc9, %.noexc
  %29 = phi i1 [ %27, %.noexc9 ], [ true, %.noexc ]
  call void @llvm.lifetime.end.p0(i64 8, ptr nonnull %2)
  %.pre = load ptr, ptr %3, align 8, !tbaa !16
  br label %30

30:                                               ; preds = %1, %28
  %31 = phi ptr [ %.pre, %28 ], [ %4, %1 ]
  %32 = phi i1 [ %29, %28 ], [ false, %1 ]
  %33 = load i64, ptr %31, align 8
  %34 = and i64 %33, 1152920405095219200
  %.not.i.i = icmp eq i64 %34, 1152920405095219200
  br i1 %.not.i.i, label %_ZN4cvc58internal8TypeNodeD2Ev.exit, label %35, !prof !15

35:                                               ; preds = %30
  %36 = add i64 %33, 1152920405095219200
  %37 = and i64 %36, 1152920405095219200
  %38 = and i64 %33, -1152920405095219201
  %39 = or disjoint i64 %37, %38
  store i64 %39, ptr %31, align 8
  %40 = icmp eq i64 %37, 0
  br i1 %40, label %41, label %_ZN4cvc58internal8TypeNodeD2Ev.exit, !prof !15

41:                                               ; preds = %35
  invoke void @_ZN4cvc58internal4expr9NodeValue15markForDeletionEv(ptr noundef nonnull align 8 dereferenceable(24) %31)
          to label %_ZN4cvc58internal8TypeNodeD2Ev.exit unwind label %42

42:                                               ; preds = %41
  %43 = landingpad { ptr, i32 }
          catch ptr null
  %44 = extractvalue { ptr, i32 } %43, 0
  call void @__clang_call_terminate(ptr %44) #20
  unreachable

_ZN4cvc58internal8TypeNodeD2Ev.exit:              ; preds = %30, %35, %41
  call void @llvm.lifetime.end.p0(i64 8, ptr nonnull %3) #19
  ret i1 %32

45:                                               ; preds = %25, %9
  %46 = landingpad { ptr, i32 }
          cleanup
  call void @_ZN4cvc58internal8TypeNodeD2Ev(ptr noundef nonnull align 8 dereferenceable(8) %3) #19
  call void @llvm.lifetime.end.p0(i64 8, ptr nonnull %3) #19
  resume { ptr, i32 } %46
}